target datalayout = "e-m:e-p270:32:32-p271:32:32-p272:64:64-i64:64-i128:128-f80:128-n8:16:32:64-S128"
target triple = "x86_64-pc-linux-gnu"

%struct.AVFilterContext = type { ptr, ptr, ptr, ptr, ptr, i32, ptr, ptr, i32, ptr, ptr, i32, i32, ptr, ptr, ptr, ptr, i32, ptr, i32, i32 }
%struct.VAAPIVPPContext = type { ptr, ptr, ptr, i32, i32, i32, ptr, ptr, %struct._VARectangle, i32, i32, i32, [10 x i32], i32, i32, ptr, ptr }
%struct._VARectangle = type { i16, i16, i16, i16 }
%struct._VAProcPipelineParameterBuffer = type { i32, ptr, i32, ptr, i32, i32, i32, i32, ptr, i32, ptr, i32, ptr, i32, i32, ptr, i32, ptr, i32, i32, i32, %struct._VAProcColorProperties, %struct._VAProcColorProperties, i32, ptr, [16 x i32] }
%struct._VAProcColorProperties = type { i8, i8, i8, i8, i8, [3 x i8] }
%struct.AVFilterLink = type { ptr, ptr, ptr, ptr, i32, i32, i32, i32, %struct.AVRational, i32, i32, i32, %struct.AVChannelLayout, %struct.AVRational, ptr, i32, %struct.AVFilterFormatsConfig, %struct.AVFilterFormatsConfig }
%struct.AVChannelLayout = type { i32, i32, %union.anon.1, ptr }
%union.anon.1 = type { i64 }
%struct.AVRational = type { i32, i32 }
%struct.AVFilterFormatsConfig = type { ptr, ptr, ptr, ptr, ptr }
%struct.AVFrame = type { [8 x ptr], [8 x i32], ptr, i32, i32, i32, i32, i32, %struct.AVRational, i64, i64, %struct.AVRational, i32, ptr, i32, i32, [8 x ptr], ptr, i32, ptr, i32, i32, i32, i32, i32, i32, i32, i64, ptr, i32, ptr, ptr, i64, i64, i64, i64, ptr, %struct.AVChannelLayout, i64 }
%struct.PadVAAPIContext = type { %struct.VAAPIVPPContext, %struct._VARectangle, ptr, ptr, ptr, ptr, %struct.AVRational, i32, i32, i32, i32, [4 x i8] }

; Function Attrs: nounwind uwtable
define internal i32 @pad_vaapi_filter_frame(ptr noundef %0, ptr noundef %1) #2 {
  %3 = alloca i32, align 4
  %4 = alloca ptr, align 8
  %5 = alloca ptr, align 8
  %6 = alloca ptr, align 8
  %7 = alloca ptr, align 8
  %8 = alloca ptr, align 8
  %9 = alloca ptr, align 8
  %10 = alloca ptr, align 8
  %11 = alloca %struct._VAProcPipelineParameterBuffer, align 8
  %12 = alloca i32, align 4
  %13 = alloca i32, align 4
  store ptr %0, ptr %4, align 8, !tbaa !31
  store ptr %1, ptr %5, align 8, !tbaa !33
  call void @llvm.lifetime.start.p0(i64 8, ptr %6) #6
  %14 = load ptr, ptr %4, align 8, !tbaa !31
  %15 = getelementptr inbounds nuw %struct.AVFilterLink, ptr %14, i32 0, i32 2
  %16 = load ptr, ptr %15, align 8, !tbaa !35
  store ptr %16, ptr %6, align 8, !tbaa !4
  call void @llvm.lifetime.start.p0(i64 8, ptr %7) #6
  %17 = load ptr, ptr %6, align 8, !tbaa !4
  %18 = getelementptr inbounds nuw %struct.AVFilterContext, ptr %17, i32 0, i32 7
  %19 = load ptr, ptr %18, align 8, !tbaa !43
  %20 = getelementptr inbounds ptr, ptr %19, i64 0
  %21 = load ptr, ptr %20, align 8, !tbaa !31
  store ptr %21, ptr %7, align 8, !tbaa !31
  call void @llvm.lifetime.start.p0(i64 8, ptr %8) #6
  %22 = load ptr, ptr %6, align 8, !tbaa !4
  %23 = getelementptr inbounds nuw %struct.AVFilterContext, ptr %22, i32 0, i32 9
  %24 = load ptr, ptr %23, align 8, !tbaa !9
  store ptr %24, ptr %8, align 8, !tbaa !22
  call void @llvm.lifetime.start.p0(i64 8, ptr %9) #6
  %25 = load ptr, ptr %6, align 8, !tbaa !4
  %26 = getelementptr inbounds nuw %struct.AVFilterContext, ptr %25, i32 0, i32 9
  %27 = load ptr, ptr %26, align 8, !tbaa !9
  store ptr %27, ptr %9, align 8, !tbaa !44
  call void @llvm.lifetime.start.p0(i64 8, ptr %10) #6
  store ptr null, ptr %10, align 8, !tbaa !33
  call void @llvm.lifetime.start.p0(i64 224, ptr %11) #6
  call void @llvm.lifetime.start.p0(i64 4, ptr %12) #6
  %28 = load ptr, ptr %5, align 8, !tbaa !33
  %29 = getelementptr inbounds nuw %struct.AVFrame, ptr %28, i32 0, i32 30
  %30 = load ptr, ptr %29, align 8, !tbaa !46
  %31 = icmp ne ptr %30, null
  br i1 %31, label %32, label %37

32:                                               ; preds = %2
  %33 = load ptr, ptr %8, align 8, !tbaa !22
  %34 = getelementptr inbounds nuw %struct.VAAPIVPPContext, ptr %33, i32 0, i32 5
  %35 = load i32, ptr %34, align 8, !tbaa !52
  %36 = icmp eq i32 %35, -1
  br i1 %36, label %37, label %38

37:                                               ; preds = %32, %2
  store i32 -22, ptr %12, align 4, !tbaa !53
  br label %134

38:                                               ; preds = %32
  %39 = load ptr, ptr %7, align 8, !tbaa !31
  %40 = load ptr, ptr %7, align 8, !tbaa !31
  %41 = getelementptr inbounds nuw %struct.AVFilterLink, ptr %40, i32 0, i32 6
  %42 = load i32, ptr %41, align 8, !tbaa !54
  %43 = load ptr, ptr %7, align 8, !tbaa !31
  %44 = getelementptr inbounds nuw %struct.AVFilterLink, ptr %43, i32 0, i32 7
  %45 = load i32, ptr %44, align 4, !tbaa !55
  %46 = call ptr @ff_get_video_buffer(ptr noundef %39, i32 noundef %42, i32 noundef %45)
  store ptr %46, ptr %10, align 8, !tbaa !33
  %47 = load ptr, ptr %10, align 8, !tbaa !33
  %48 = icmp ne ptr %47, null
  br i1 %48, label %50, label %49

49:                                               ; preds = %38
  store i32 -12, ptr %12, align 4, !tbaa !53
  br label %134

50:                                               ; preds = %38
  %51 = load ptr, ptr %10, align 8, !tbaa !33
  %52 = load ptr, ptr %5, align 8, !tbaa !33
  %53 = call i32 @av_frame_copy_props(ptr noundef %51, ptr noundef %52)
  store i32 %53, ptr %12, align 4, !tbaa !53
  %54 = load i32, ptr %12, align 4, !tbaa !53
  %55 = icmp slt i32 %54, 0
  br i1 %55, label %56, label %57

56:                                               ; preds = %50
  br label %134

57:                                               ; preds = %50
  %58 = load ptr, ptr %6, align 8, !tbaa !4
  %59 = load ptr, ptr %5, align 8, !tbaa !33
  %60 = load ptr, ptr %10, align 8, !tbaa !33
  %61 = call i32 @ff_vaapi_vpp_init_params(ptr noundef %58, ptr noundef %11, ptr noundef %59, ptr noundef %60)
  store i32 %61, ptr %12, align 4, !tbaa !53
  %62 = load i32, ptr %12, align 4, !tbaa !53
  %63 = icmp slt i32 %62, 0
  br i1 %63, label %64, label %65

64:                                               ; preds = %57
  br label %134

65:                                               ; preds = %57
  %66 = load ptr, ptr %9, align 8, !tbaa !44
  %67 = getelementptr inbounds nuw %struct.PadVAAPIContext, ptr %66, i32 0, i32 9
  %68 = load i32, ptr %67, align 8, !tbaa !56
  %69 = trunc i32 %68 to i16
  %70 = load ptr, ptr %9, align 8, !tbaa !44
  %71 = getelementptr inbounds nuw %struct.PadVAAPIContext, ptr %70, i32 0, i32 1
  %72 = getelementptr inbounds nuw %struct._VARectangle, ptr %71, i32 0, i32 0
  store i16 %69, ptr %72, align 8, !tbaa !58
  %73 = load ptr, ptr %9, align 8, !tbaa !44
  %74 = getelementptr inbounds nuw %struct.PadVAAPIContext, ptr %73, i32 0, i32 10
  %75 = load i32, ptr %74, align 4, !tbaa !59
  %76 = trunc i32 %75 to i16
  %77 = load ptr, ptr %9, align 8, !tbaa !44
  %78 = getelementptr inbounds nuw %struct.PadVAAPIContext, ptr %77, i32 0, i32 1
  %79 = getelementptr inbounds nuw %struct._VARectangle, ptr %78, i32 0, i32 1
  store i16 %76, ptr %79, align 2, !tbaa !60
  %80 = load ptr, ptr %4, align 8, !tbaa !31
  %81 = getelementptr inbounds nuw %struct.AVFilterLink, ptr %80, i32 0, i32 6
  %82 = load i32, ptr %81, align 8, !tbaa !54
  %83 = trunc i32 %82 to i16
  %84 = load ptr, ptr %9, align 8, !tbaa !44
  %85 = getelementptr inbounds nuw %struct.PadVAAPIContext, ptr %84, i32 0, i32 1
  %86 = getelementptr inbounds nuw %struct._VARectangle, ptr %85, i32 0, i32 2
  store i16 %83, ptr %86, align 4, !tbaa !61
  %87 = load ptr, ptr %4, align 8, !tbaa !31
  %88 = getelementptr inbounds nuw %struct.AVFilterLink, ptr %87, i32 0, i32 7
  %89 = load i32, ptr %88, align 4, !tbaa !55
  %90 = trunc i32 %89 to i16
  %91 = load ptr, ptr %9, align 8, !tbaa !44
  %92 = getelementptr inbounds nuw %struct.PadVAAPIContext, ptr %91, i32 0, i32 1
  %93 = getelementptr inbounds nuw %struct._VARectangle, ptr %92, i32 0, i32 3
  store i16 %90, ptr %93, align 2, !tbaa !62
  %94 = load ptr, ptr %9, align 8, !tbaa !44
  %95 = getelementptr inbounds nuw %struct.PadVAAPIContext, ptr %94, i32 0, i32 1
  %96 = getelementptr inbounds nuw %struct._VAProcPipelineParameterBuffer, ptr %11, i32 0, i32 3
  store ptr %95, ptr %96, align 8, !tbaa !63
  %97 = load ptr, ptr %9, align 8, !tbaa !44
  %98 = getelementptr inbounds nuw %struct.PadVAAPIContext, ptr %97, i32 0, i32 11
  %99 = getelementptr inbounds [4 x i8], ptr %98, i64 0, i64 3
  %100 = load i8, ptr %99, align 1, !tbaa !70
  %101 = zext i8 %100 to i32
  %102 = shl i32 %101, 24
  %103 = load ptr, ptr %9, align 8, !tbaa !44
  %104 = getelementptr inbounds nuw %struct.PadVAAPIContext, ptr %103, i32 0, i32 11
  %105 = getelementptr inbounds [4 x i8], ptr %104, i64 0, i64 0
  %106 = load i8, ptr %105, align 8, !tbaa !70
  %107 = zext i8 %106 to i32
  %108 = shl i32 %107, 16
  %109 = or i32 %102, %108
  %110 = load ptr, ptr %9, align 8, !tbaa !44
  %111 = getelementptr inbounds nuw %struct.PadVAAPIContext, ptr %110, i32 0, i32 11
  %112 = getelementptr inbounds [4 x i8], ptr %111, i64 0, i64 1
  %113 = load i8, ptr %112, align 1, !tbaa !70
  %114 = zext i8 %113 to i32
  %115 = shl i32 %114, 8
  %116 = or i32 %109, %115
  %117 = load ptr, ptr %9, align 8, !tbaa !44
  %118 = getelementptr inbounds nuw %struct.PadVAAPIContext, ptr %117, i32 0, i32 11
  %119 = getelementptr inbounds [4 x i8], ptr %118, i64 0, i64 2
  %120 = load i8, ptr %119, align 2, !tbaa !70
  %121 = zext i8 %120 to i32
  %122 = or i32 %116, %121
  %123 = getelementptr inbounds nuw %struct._VAProcPipelineParameterBuffer, ptr %11, i32 0, i32 4
  store i32 %122, ptr %123, align 8, !tbaa !71
  %124 = load ptr, ptr %6, align 8, !tbaa !4
  %125 = load ptr, ptr %10, align 8, !tbaa !33
  %126 = call i32 @ff_vaapi_vpp_render_picture(ptr noundef %124, ptr noundef %11, ptr noundef %125)
  store i32 %126, ptr %12, align 4, !tbaa !53
  %127 = load i32, ptr %12, align 4, !tbaa !53
  %128 = icmp slt i32 %127, 0
  br i1 %128, label %129, label %130

129:                                              ; preds = %65
  br label %134

130:                                              ; preds = %65
  call void @av_frame_free(ptr noundef %5)
  %131 = load ptr, ptr %7, align 8, !tbaa !31
  %132 = load ptr, ptr %10, align 8, !tbaa !33
  %133 = call i32 @ff_filter_frame(ptr noundef %131, ptr noundef %132)
  store i32 %133, ptr %3, align 4
  store i32 1, ptr %13, align 4
  br label %136

134:                                              ; preds = %129, %64, %56, %49, %37
  call void @av_frame_free(ptr noundef %5)
  call void @av_frame_free(ptr noundef %10)
  %135 = load i32, ptr %12, align 4, !tbaa !53
  store i32 %135, ptr %3, align 4
  store i32 1, ptr %13, align 4
  br label %136

136:                                              ; preds = %134, %130
  call void @llvm.lifetime.end.p0(i64 4, ptr %12) #6
  call void @llvm.lifetime.end.p0(i64 224, ptr %11) #6
  call void @llvm.lifetime.end.p0(i64 8, ptr %10) #6
  call void @llvm.lifetime.end.p0(i64 8, ptr %9) #6
  call void @llvm.lifetime.end.p0(i64 8, ptr %8) #6
  call void @llvm.lifetime.end.p0(i64 8, ptr %7) #6
  call void @llvm.lifetime.end.p0(i64 8, ptr %6) #6
  %137 = load i32, ptr %3, align 4
  ret i32 %137
}