; Function Attrs: nounwind uwtable
define internal i32 @pad_vaapi_filter_frame(ptr noundef readonly captures(none) %0, ptr noundef %1) #2 {
  %3 = alloca ptr, align 8
  %4 = alloca ptr, align 8
  %5 = alloca %struct._VAProcPipelineParameterBuffer, align 8
  store ptr %1, ptr %3, align 8, !tbaa !27
  %6 = getelementptr inbounds nuw i8, ptr %0, i64 16
  %7 = load ptr, ptr %6, align 8, !tbaa !29
  %8 = getelementptr inbounds nuw i8, ptr %7, i64 56
  %9 = load ptr, ptr %8, align 8, !tbaa !38
  %10 = load ptr, ptr %9, align 8, !tbaa !39
  %11 = getelementptr inbounds nuw i8, ptr %7, i64 72
  %12 = load ptr, ptr %11, align 8, !tbaa !4
  call void @llvm.lifetime.start.p0(i64 8, ptr nonnull %4) #6
  store ptr null, ptr %4, align 8, !tbaa !27
  call void @llvm.lifetime.start.p0(i64 224, ptr nonnull %5) #6
  %13 = getelementptr inbounds nuw i8, ptr %1, i64 328
  %14 = load ptr, ptr %13, align 8, !tbaa !41
  %.not = icmp eq ptr %14, null
  br i1 %.not, label %72, label %15

15:                                               ; preds = %2
  %16 = getelementptr inbounds nuw i8, ptr %12, i64 32
  %17 = load i32, ptr %16, align 8, !tbaa !47
  %18 = icmp eq i32 %17, -1
  br i1 %18, label %72, label %19

19:                                               ; preds = %15
  %20 = getelementptr inbounds nuw i8, ptr %10, i64 40
  %21 = load i32, ptr %20, align 8, !tbaa !48
  %22 = getelementptr inbounds nuw i8, ptr %10, i64 44
  %23 = load i32, ptr %22, align 4, !tbaa !49
  %24 = tail call ptr @ff_get_video_buffer(ptr noundef %10, i32 noundef %21, i32 noundef %23) #6
  store ptr %24, ptr %4, align 8, !tbaa !27
  %.not33 = icmp eq ptr %24, null
  br i1 %.not33, label %72, label %25

25:                                               ; preds = %19
  %26 = tail call i32 @av_frame_copy_props(ptr noundef nonnull %24, ptr noundef nonnull %1) #6
  %27 = icmp slt i32 %26, 0
  br i1 %27, label %72, label %28

28:                                               ; preds = %25
  %29 = call i32 @ff_vaapi_vpp_init_params(ptr noundef nonnull %7, ptr noundef nonnull %5, ptr noundef nonnull %1, ptr noundef nonnull %24) #6
  %30 = icmp slt i32 %29, 0
  br i1 %30, label %72, label %31

31:                                               ; preds = %28
  %32 = getelementptr inbounds nuw i8, ptr %12, i64 200
  %33 = load i32, ptr %32, align 8, !tbaa !50
  %34 = trunc i32 %33 to i16
  %35 = getelementptr inbounds nuw i8, ptr %12, i64 144
  store i16 %34, ptr %35, align 8, !tbaa !52
  %36 = getelementptr inbounds nuw i8, ptr %12, i64 204
  %37 = load i32, ptr %36, align 4, !tbaa !53
  %38 = trunc i32 %37 to i16
  %39 = getelementptr inbounds nuw i8, ptr %12, i64 146
  store i16 %38, ptr %39, align 2, !tbaa !54
  %40 = getelementptr inbounds nuw i8, ptr %0, i64 40
  %41 = load i32, ptr %40, align 8, !tbaa !48
  %42 = trunc i32 %41 to i16
  %43 = getelementptr inbounds nuw i8, ptr %12, i64 148
  store i16 %42, ptr %43, align 4, !tbaa !55
  %44 = getelementptr inbounds nuw i8, ptr %0, i64 44
  %45 = load i32, ptr %44, align 4, !tbaa !49
  %46 = trunc i32 %45 to i16
  %47 = getelementptr inbounds nuw i8, ptr %12, i64 150
  store i16 %46, ptr %47, align 2, !tbaa !56
  %48 = getelementptr inbounds nuw i8, ptr %5, i64 24
  store ptr %35, ptr %48, align 8, !tbaa !57
  %49 = getelementptr inbounds nuw i8, ptr %12, i64 208
  %50 = getelementptr inbounds nuw i8, ptr %12, i64 211
  %51 = load i8, ptr %50, align 1, !tbaa !64
  %52 = zext i8 %51 to i32
  %53 = shl nuw i32 %52, 24
  %54 = load i8, ptr %49, align 8, !tbaa !64
  %55 = zext i8 %54 to i32
  %56 = shl nuw nsw i32 %55, 16
  %57 = or disjoint i32 %56, %53
  %58 = getelementptr inbounds nuw i8, ptr %12, i64 209
  %59 = load i8, ptr %58, align 1, !tbaa !64
  %60 = zext i8 %59 to i32
  %61 = shl nuw nsw i32 %60, 8
  %62 = or disjoint i32 %57, %61
  %63 = getelementptr inbounds nuw i8, ptr %12, i64 210
  %64 = load i8, ptr %63, align 2, !tbaa !64
  %65 = zext i8 %64 to i32
  %66 = or disjoint i32 %62, %65
  %67 = getelementptr inbounds nuw i8, ptr %5, i64 32
  store i32 %66, ptr %67, align 8, !tbaa !65
  %68 = call i32 @ff_vaapi_vpp_render_picture(ptr noundef nonnull %7, ptr noundef nonnull %5, ptr noundef nonnull %24) #6
  %69 = icmp slt i32 %68, 0
  br i1 %69, label %72, label %70

70:                                               ; preds = %31
  call void @av_frame_free(ptr noundef nonnull %3) #6
  %71 = call i32 @ff_filter_frame(ptr noundef nonnull %10, ptr noundef nonnull %24) #6
  br label %73

72:                                               ; preds = %19, %2, %15, %31, %28, %25
  %.0 = phi i32 [ %26, %25 ], [ %29, %28 ], [ %68, %31 ], [ -22, %15 ], [ -22, %2 ], [ -12, %19 ]
  call void @av_frame_free(ptr noundef nonnull %3) #6
  call void @av_frame_free(ptr noundef nonnull %4) #6
  br label %73

73:                                               ; preds = %72, %70
  %.028 = phi i32 [ %.0, %72 ], [ %71, %70 ]
  call void @llvm.lifetime.end.p0(i64 224, ptr nonnull %5) #6
  call void @llvm.lifetime.end.p0(i64 8, ptr nonnull %4) #6
  ret i32 %.028
}